; ModuleID = '16/915.c'
source_filename = "16/915.c"
target datalayout = "e-m:e-p270:32:32-p271:32:32-p272:64:64-i64:64-f80:128-n8:16:32:64-S128"
target triple = "x86_64-pc-linux-gnu"

@.str = private unnamed_addr constant [3 x i8] c"%d\00", align 1
@.str.1 = private unnamed_addr constant [2 x i8] c"0\00", align 1

; Function Attrs: noinline nounwind uwtable
define dso_local i32 @main() #0 {
  %1 = alloca i32, align 4
  %2 = alloca i32, align 4
  %3 = alloca i32, align 4
  %4 = alloca i32, align 4
  %5 = alloca [6 x i32], align 16
  store i32 0, i32* %1, align 4
  store i32 0, i32* %3, align 4
  %6 = bitcast [6 x i32]* %5 to i8*
  call void @llvm.memset.p0i8.i64(i8* align 16 %6, i8 0, i64 24, i1 false)
  %7 = call i32 (i8*, ...) @__isoc99_scanf(i8* getelementptr inbounds ([3 x i8], [3 x i8]* @.str, i64 0, i64 0), i32* %2)
  %8 = load i32, i32* %2, align 4
  %9 = icmp eq i32 %8, 0
  br i1 %9, label %10, label %12

10:                                               ; preds = %0
  %11 = call i32 (i8*, ...) @printf(i8* getelementptr inbounds ([2 x i8], [2 x i8]* @.str.1, i64 0, i64 0))
  br label %12

12:                                               ; preds = %10, %0
  br label %13

13:                                               ; preds = %16, %12
  %14 = load i32, i32* %2, align 4
  %15 = icmp ne i32 %14, 0
  br i1 %15, label %16, label %25

16:                                               ; preds = %13
  %17 = load i32, i32* %2, align 4
  %18 = srem i32 %17, 10
  %19 = load i32, i32* %3, align 4
  %20 = add nsw i32 %19, 1
  store i32 %20, i32* %3, align 4
  %21 = sext i32 %19 to i64
  %22 = getelementptr inbounds [6 x i32], [6 x i32]* %5, i64 0, i64 %21
  store i32 %18, i32* %22, align 4
  %23 = load i32, i32* %2, align 4
  %24 = sdiv i32 %23, 10
  store i32 %24, i32* %2, align 4
  br label %13

25:                                               ; preds = %13
  store i32 0, i32* %4, align 4
  br label %26

26:                                               ; preds = %36, %25
  %27 = load i32, i32* %4, align 4
  %28 = load i32, i32* %3, align 4
  %29 = icmp slt i32 %27, %28
  br i1 %29, label %30, label %39

30:                                               ; preds = %26
  %31 = load i32, i32* %4, align 4
  %32 = sext i32 %31 to i64
  %33 = getelementptr inbounds [6 x i32], [6 x i32]* %5, i64 0, i64 %32
  %34 = load i32, i32* %33, align 4
  %35 = call i32 (i8*, ...) @printf(i8* getelementptr inbounds ([3 x i8], [3 x i8]* @.str, i64 0, i64 0), i32 %34)
  br label %36

36:                                               ; preds = %30
  %37 = load i32, i32* %4, align 4
  %38 = add nsw i32 %37, 1
  store i32 %38, i32* %4, align 4
  br label %26

39:                                               ; preds = %26
  ret i32 0
}

; Function Attrs: argmemonly nounwind willreturn
declare void @llvm.memset.p0i8.i64(i8* nocapture writeonly, i8, i64, i1 immarg) #1

declare dso_local i32 @__isoc99_scanf(i8*, ...) #2

declare dso_local i32 @printf(i8*, ...) #2


!llvm.module.flags = !{!0}
!llvm.ident = !{!1}

!0 = !{i32 1, !"wchar_size", i32 4}
!1 = !{!"clang version 10.0.0-4ubuntu1 "}
