; ModuleID = 'source-C-CXX/15/915.c'
source_filename = "source-C-CXX/15/915.c"
target datalayout = "e-m:e-p270:32:32-p271:32:32-p272:64:64-i64:64-f80:128-n8:16:32:64-S128"
target triple = "x86_64-pc-linux-gnu"

@.str = private unnamed_addr constant [3 x i8] c"%d\00", align 1

; Function Attrs: nofree nounwind sspstrong uwtable
define dso_local i32 @main() local_unnamed_addr #0 {
  %1 = alloca i32, align 4
  %2 = alloca [6 x i32], align 16
  %3 = bitcast i32* %1 to i8*
  call void @llvm.lifetime.start.p0i8(i64 4, i8* nonnull %3) #5
  %4 = bitcast [6 x i32]* %2 to i8*
  call void @llvm.lifetime.start.p0i8(i64 24, i8* nonnull %4) #5
  call void @llvm.memset.p0i8.i64(i8* noundef nonnull align 16 dereferenceable(24) %4, i8 0, i64 24, i1 false)
  %5 = call i32 (i8*, ...) @__isoc99_scanf(i8* getelementptr inbounds ([3 x i8], [3 x i8]* @.str, i64 0, i64 0), i32* nonnull %1)
  %6 = load i32, i32* %1, align 4, !tbaa !5
  %7 = icmp eq i32 %6, 0
  br i1 %7, label %8, label %12

8:                                                ; preds = %0
  %9 = call i32 @putchar(i32 48)
  %10 = load i32, i32* %1, align 4, !tbaa !5
  %11 = icmp eq i32 %10, 0
  br i1 %11, label %35, label %12

12:                                               ; preds = %0, %8
  %13 = phi i32 [ %10, %8 ], [ %6, %0 ]
  br label %19

14:                                               ; preds = %19
  %15 = trunc i64 %23 to i32
  store i32 %25, i32* %1, align 4, !tbaa !5
  %16 = icmp eq i32 %15, 0
  br i1 %16, label %35, label %17

17:                                               ; preds = %14
  %18 = and i64 %23, 4294967295
  br label %28

19:                                               ; preds = %12, %19
  %20 = phi i64 [ %23, %19 ], [ 0, %12 ]
  %21 = phi i32 [ %25, %19 ], [ %13, %12 ]
  %22 = srem i32 %21, 10
  %23 = add nuw i64 %20, 1
  %24 = getelementptr inbounds [6 x i32], [6 x i32]* %2, i64 0, i64 %20
  store i32 %22, i32* %24, align 4, !tbaa !5
  %25 = sdiv i32 %21, 10
  %26 = add i32 %21, 9
  %27 = icmp ult i32 %26, 19
  br i1 %27, label %14, label %19, !llvm.loop !9

28:                                               ; preds = %17, %28
  %29 = phi i64 [ 0, %17 ], [ %33, %28 ]
  %30 = getelementptr inbounds [6 x i32], [6 x i32]* %2, i64 0, i64 %29
  %31 = load i32, i32* %30, align 4, !tbaa !5
  %32 = call i32 (i8*, ...) @printf(i8* nonnull dereferenceable(1) getelementptr inbounds ([3 x i8], [3 x i8]* @.str, i64 0, i64 0), i32 %31)
  %33 = add nuw nsw i64 %29, 1
  %34 = icmp eq i64 %33, %18
  br i1 %34, label %35, label %28, !llvm.loop !11

35:                                               ; preds = %28, %8, %14
  call void @llvm.lifetime.end.p0i8(i64 24, i8* nonnull %4) #5
  call void @llvm.lifetime.end.p0i8(i64 4, i8* nonnull %3) #5
  ret i32 0
}

; Function Attrs: argmemonly mustprogress nofree nosync nounwind willreturn
declare void @llvm.lifetime.start.p0i8(i64 immarg, i8* nocapture) #1

; Function Attrs: argmemonly mustprogress nofree nounwind willreturn writeonly
declare void @llvm.memset.p0i8.i64(i8* nocapture writeonly, i8, i64, i1 immarg) #2

; Function Attrs: nofree nounwind
declare noundef i32 @__isoc99_scanf(i8* nocapture noundef readonly, ...) local_unnamed_addr #3

; Function Attrs: nofree nounwind
declare noundef i32 @printf(i8* nocapture noundef readonly, ...) local_unnamed_addr #3

; Function Attrs: argmemonly mustprogress nofree nosync nounwind willreturn
declare void @llvm.lifetime.end.p0i8(i64 immarg, i8* nocapture) #1

; Function Attrs: nofree nounwind
declare noundef i32 @putchar(i32 noundef) local_unnamed_addr #4


!llvm.module.flags = !{!0, !1, !2, !3}
!llvm.ident = !{!4}

!0 = !{i32 1, !"wchar_size", i32 4}
!1 = !{i32 7, !"PIC Level", i32 2}
!2 = !{i32 7, !"PIE Level", i32 2}
!3 = !{i32 7, !"uwtable", i32 1}
!4 = !{!"clang version 13.0.0"}
!5 = !{!6, !6, i64 0}
!6 = !{!"int", !7, i64 0}
!7 = !{!"omnipotent char", !8, i64 0}
!8 = !{!"Simple C/C++ TBAA"}
!9 = distinct !{!9, !10}
!10 = !{!"llvm.loop.mustprogress"}
!11 = distinct !{!11, !10}
